target datalayout = "e-m:e-p270:32:32-p271:32:32-p272:64:64-i64:64-i128:128-f80:128-n8:16:32:64-S128"
target triple = "x86_64-pc-linux-gnu"

%"class.testing::internal::ParamIterator.112" = type { %"class.testing::internal::scoped_ptr.113" }
%"class.testing::internal::scoped_ptr.113" = type { ptr }

; Function Attrs: mustprogress uwtable
define internal void @_ZN7testing8internal10scoped_ptrINS0_22ParamIteratorInterfaceIN4perf12_GLOBAL__N_18MatDepthEEEE5resetEPS6_(ptr noundef nonnull align 8 dereferenceable(8) %0, ptr noundef %1) #6 align 2 {
  %3 = alloca ptr, align 8
  %4 = alloca ptr, align 8
  store ptr %0, ptr %3, align 8, !tbaa !485
  store ptr %1, ptr %4, align 8, !tbaa !452
  %5 = load ptr, ptr %3, align 8
  %6 = load ptr, ptr %4, align 8, !tbaa !452
  %7 = getelementptr inbounds nuw %"class.testing::internal::scoped_ptr.113", ptr %5, i32 0, i32 0
  %8 = load ptr, ptr %7, align 8, !tbaa !487
  %9 = icmp ne ptr %6, %8
  br i1 %9, label %10, label %24

10:                                               ; preds = %2
  %11 = call noundef zeroext i1 @_ZN7testing8internal6IsTrueEb(i1 noundef zeroext true)
  br i1 %11, label %12, label %21

12:                                               ; preds = %10
  %13 = getelementptr inbounds nuw %"class.testing::internal::scoped_ptr.113", ptr %5, i32 0, i32 0
  %14 = load ptr, ptr %13, align 8, !tbaa !487
  %15 = icmp eq ptr %14, null
  br i1 %15, label %20, label %16

16:                                               ; preds = %12
  %17 = load ptr, ptr %14, align 8, !tbaa !20
  %18 = getelementptr inbounds ptr, ptr %17, i64 1
  %19 = load ptr, ptr %18, align 8
  call void %19(ptr noundef nonnull align 8 dereferenceable(8) %14) #3
  br label %20

20:                                               ; preds = %16, %12
  br label %21

21:                                               ; preds = %20, %10
  %22 = load ptr, ptr %4, align 8, !tbaa !452
  %23 = getelementptr inbounds nuw %"class.testing::internal::scoped_ptr.113", ptr %5, i32 0, i32 0
  store ptr %22, ptr %23, align 8, !tbaa !487
  br label %24

24:                                               ; preds = %21, %2
  ret void
}

; Function Attrs: mustprogress nounwind uwtable
define internal void @_ZN7testing8internal10scoped_ptrINS0_22ParamIteratorInterfaceIN4perf12_GLOBAL__N_18MatDepthEEEED2Ev(ptr noundef nonnull align 8 dereferenceable(8) %0) unnamed_addr #9 align 2 personality ptr @__gxx_personality_v0 {
  %2 = alloca ptr, align 8
  store ptr %0, ptr %2, align 8, !tbaa !485
  %3 = load ptr, ptr %2, align 8
  invoke void @_ZN7testing8internal10scoped_ptrINS0_22ParamIteratorInterfaceIN4perf12_GLOBAL__N_18MatDepthEEEE5resetEPS6_(ptr noundef nonnull align 8 dereferenceable(8) %3, ptr noundef null)
          to label %4 unwind label %5

4:                                                ; preds = %1
  ret void

5:                                                ; preds = %1
  %6 = landingpad { ptr, i32 }
          catch ptr null
  %7 = extractvalue { ptr, i32 } %6, 0
  call void @__clang_call_terminate(ptr %7) #28
  unreachable
}

; Function Attrs: inlinehint mustprogress nounwind uwtable
define internal void @_ZN7testing8internal13ParamIteratorIN4perf12_GLOBAL__N_18MatDepthEED2Ev(ptr noundef nonnull align 8 dereferenceable(8) %0) unnamed_addr #4 align 2 {
  %2 = alloca ptr, align 8
  store ptr %0, ptr %2, align 8, !tbaa !467
  %3 = load ptr, ptr %2, align 8
  %4 = getelementptr inbounds nuw %"class.testing::internal::ParamIterator.112", ptr %3, i32 0, i32 0
  call void @_ZN7testing8internal10scoped_ptrINS0_22ParamIteratorInterfaceIN4perf12_GLOBAL__N_18MatDepthEEEED2Ev(ptr noundef nonnull align 8 dereferenceable(8) %4) #3
  ret void
}